target datalayout = "e-m:e-p270:32:32-p271:32:32-p272:64:64-i64:64-i128:128-f80:128-n8:16:32:64-S128"
target triple = "x86_64-unknown-linux-gnu"

%"class.icu_75::UTF16CollationIterator" = type { %"class.icu_75::CollationIterator.base", ptr, ptr, ptr }
%"class.icu_75::CollationIterator.base" = type <{ %"class.icu_75::UObject", ptr, ptr, %"class.icu_75::CollationIterator::CEBuffer", i32, [4 x i8], ptr, i32, i8 }>
%"class.icu_75::UObject" = type { ptr }
%"class.icu_75::CollationIterator::CEBuffer" = type { i32, %"class.icu_75::MaybeStackArray.0" }
%"class.icu_75::MaybeStackArray.0" = type { ptr, i32, i8, [40 x i64] }

; Function Attrs: mustprogress nounwind uwtable
define noundef zeroext i16 @_ZN6icu_7522UTF16CollationIterator23handleGetTrailSurrogateEv(ptr noundef nonnull align 8 dereferenceable(416) %this) unnamed_addr #0 align 2 {
entry:
  %retval = alloca i16, align 2
  %this.addr = alloca ptr, align 8
  %trail = alloca i16, align 2
  store ptr %this, ptr %this.addr, align 8
  %this1 = load ptr, ptr %this.addr, align 8
  %pos = getelementptr inbounds %"class.icu_75::UTF16CollationIterator", ptr %this1, i32 0, i32 2
  %0 = load ptr, ptr %pos, align 8
  %limit = getelementptr inbounds %"class.icu_75::UTF16CollationIterator", ptr %this1, i32 0, i32 3
  %1 = load ptr, ptr %limit, align 8
  %cmp = icmp eq ptr %0, %1
  br i1 %cmp, label %if.then, label %if.end

if.then:                                          ; preds = %entry
  store i16 0, ptr %retval, align 2
  br label %return

if.end:                                           ; preds = %entry
  %pos2 = getelementptr inbounds %"class.icu_75::UTF16CollationIterator", ptr %this1, i32 0, i32 2
  %2 = load ptr, ptr %pos2, align 8
  %3 = load i16, ptr %2, align 2
  store i16 %3, ptr %trail, align 2
  %conv = zext i16 %3 to i32
  %and = and i32 %conv, -1024
  %cmp3 = icmp eq i32 %and, 56320
  br i1 %cmp3, label %if.then4, label %if.end6

if.then4:                                         ; preds = %if.end
  %pos5 = getelementptr inbounds %"class.icu_75::UTF16CollationIterator", ptr %this1, i32 0, i32 2
  %4 = load ptr, ptr %pos5, align 8
  %incdec.ptr = getelementptr inbounds i16, ptr %4, i32 1
  store ptr %incdec.ptr, ptr %pos5, align 8
  br label %if.end6

if.end6:                                          ; preds = %if.then4, %if.end
  %5 = load i16, ptr %trail, align 2
  store i16 %5, ptr %retval, align 2
  br label %return

return:                                           ; preds = %if.end6, %if.then
  %6 = load i16, ptr %retval, align 2
  ret i16 %6
}