; Function Attrs: mustprogress nofree norecurse nosync nounwind willreturn memory(read, argmem: readwrite, inaccessiblemem: none) uwtable
define noundef zeroext i16 @_ZN6icu_7522UTF16CollationIterator23handleGetTrailSurrogateEv(ptr nocapture noundef nonnull align 8 dereferenceable(416) %this) unnamed_addr #8 align 2 {
entry:
  %pos = getelementptr inbounds i8, ptr %this, i64 400
  %0 = load ptr, ptr %pos, align 8
  %limit = getelementptr inbounds i8, ptr %this, i64 408
  %1 = load ptr, ptr %limit, align 8
  %cmp = icmp eq ptr %0, %1
  br i1 %cmp, label %return, label %if.end

if.end:                                           ; preds = %entry
  %2 = load i16, ptr %0, align 2
  %3 = and i16 %2, -1024
  %cmp3 = icmp eq i16 %3, -9216
  br i1 %cmp3, label %if.then4, label %return

if.then4:                                         ; preds = %if.end
  %incdec.ptr = getelementptr inbounds i8, ptr %0, i64 2
  store ptr %incdec.ptr, ptr %pos, align 8
  br label %return

return:                                           ; preds = %if.end, %if.then4, %entry
  %retval.0 = phi i16 [ 0, %entry ], [ %2, %if.then4 ], [ %2, %if.end ]
  ret i16 %retval.0
}